; Function Attrs: mustprogress nofree norecurse nosync nounwind willreturn memory(argmem: readwrite) uwtable
define void @_ZN8facebook4yoga6Config19setPointScaleFactorEf(ptr noundef nonnull align 8 captures(none) dereferenceable(48) %0, float noundef %1) local_unnamed_addr #1 align 2 {
  %3 = getelementptr inbounds nuw i8, ptr %0, i64 36
  %4 = load float, ptr %3, align 4, !tbaa !16
  %5 = fcmp une float %4, %1
  br i1 %5, label %6, label %10

6:                                                ; preds = %2
  store float %1, ptr %3, align 4, !tbaa !16
  %7 = getelementptr inbounds nuw i8, ptr %0, i64 20
  %8 = load i32, ptr %7, align 4, !tbaa !19
  %9 = add i32 %8, 1
  store i32 %9, ptr %7, align 4, !tbaa !19
  br label %10

10:                                               ; preds = %6, %2
  ret void
}